; ModuleID = '50/1756.c'
source_filename = "50/1756.c"
target datalayout = "e-m:e-p270:32:32-p271:32:32-p272:64:64-i64:64-f80:128-n8:16:32:64-S128"
target triple = "x86_64-pc-linux-gnu"

@.str = private unnamed_addr constant [3 x i8] c"%d\00", align 1
@.str.1 = private unnamed_addr constant [4 x i8] c"%d\0A\00", align 1

; Function Attrs: noinline nounwind uwtable
define dso_local i32 @main() #0 {
  %1 = alloca i32, align 4
  %2 = alloca i32, align 4
  %3 = alloca i32, align 4
  %4 = alloca i32, align 4
  %5 = alloca i32, align 4
  %6 = alloca [12 x i32], align 16
  store i32 0, i32* %1, align 4
  %7 = call i32 (i8*, ...) @__isoc99_scanf(i8* getelementptr inbounds ([3 x i8], [3 x i8]* @.str, i64 0, i64 0), i32* %2)
  %8 = getelementptr inbounds [12 x i32], [12 x i32]* %6, i64 0, i64 0
  store i32 13, i32* %8, align 16
  %9 = getelementptr inbounds [12 x i32], [12 x i32]* %6, i64 0, i64 1
  store i32 44, i32* %9, align 4
  %10 = getelementptr inbounds [12 x i32], [12 x i32]* %6, i64 0, i64 2
  store i32 72, i32* %10, align 8
  %11 = getelementptr inbounds [12 x i32], [12 x i32]* %6, i64 0, i64 3
  store i32 103, i32* %11, align 4
  %12 = getelementptr inbounds [12 x i32], [12 x i32]* %6, i64 0, i64 4
  store i32 133, i32* %12, align 16
  %13 = getelementptr inbounds [12 x i32], [12 x i32]* %6, i64 0, i64 5
  store i32 164, i32* %13, align 4
  %14 = getelementptr inbounds [12 x i32], [12 x i32]* %6, i64 0, i64 6
  store i32 194, i32* %14, align 8
  %15 = getelementptr inbounds [12 x i32], [12 x i32]* %6, i64 0, i64 7
  store i32 225, i32* %15, align 4
  %16 = getelementptr inbounds [12 x i32], [12 x i32]* %6, i64 0, i64 8
  store i32 256, i32* %16, align 16
  %17 = getelementptr inbounds [12 x i32], [12 x i32]* %6, i64 0, i64 9
  store i32 286, i32* %17, align 4
  %18 = getelementptr inbounds [12 x i32], [12 x i32]* %6, i64 0, i64 10
  store i32 317, i32* %18, align 8
  %19 = getelementptr inbounds [12 x i32], [12 x i32]* %6, i64 0, i64 11
  store i32 347, i32* %19, align 4
  store i32 0, i32* %5, align 4
  br label %20

20:                                               ; preds = %41, %0
  %21 = load i32, i32* %5, align 4
  %22 = icmp slt i32 %21, 12
  br i1 %22, label %23, label %44

23:                                               ; preds = %20
  %24 = load i32, i32* %5, align 4
  %25 = sext i32 %24 to i64
  %26 = getelementptr inbounds [12 x i32], [12 x i32]* %6, i64 0, i64 %25
  %27 = load i32, i32* %26, align 4
  %28 = sub nsw i32 %27, 1
  %29 = srem i32 %28, 7
  %30 = load i32, i32* %2, align 4
  %31 = add nsw i32 %29, %30
  store i32 %31, i32* %3, align 4
  %32 = load i32, i32* %3, align 4
  %33 = srem i32 %32, 7
  store i32 %33, i32* %4, align 4
  %34 = load i32, i32* %4, align 4
  %35 = icmp eq i32 %34, 5
  br i1 %35, label %36, label %40

36:                                               ; preds = %23
  %37 = load i32, i32* %5, align 4
  %38 = add nsw i32 %37, 1
  %39 = call i32 (i8*, ...) @printf(i8* getelementptr inbounds ([4 x i8], [4 x i8]* @.str.1, i64 0, i64 0), i32 %38)
  br label %40

40:                                               ; preds = %36, %23
  br label %41

41:                                               ; preds = %40
  %42 = load i32, i32* %5, align 4
  %43 = add nsw i32 %42, 1
  store i32 %43, i32* %5, align 4
  br label %20

44:                                               ; preds = %20
  ret i32 0
}

declare dso_local i32 @__isoc99_scanf(i8*, ...) #1

declare dso_local i32 @printf(i8*, ...) #1


!llvm.module.flags = !{!0}
!llvm.ident = !{!1}

!0 = !{i32 1, !"wchar_size", i32 4}
!1 = !{!"clang version 10.0.0-4ubuntu1 "}
